; Function Attrs: nounwind uwtable
define ptr @Gia_ManReadMiniAig(ptr noundef %0, i32 noundef %1) local_unnamed_addr #2 {
  %3 = tail call fastcc ptr @Mini_AigLoad(ptr noundef %0)
  %4 = tail call ptr @Gia_ManFromMiniAig(ptr noundef %3, ptr noundef null, i32 noundef %1)
  %5 = load ptr, ptr %4, align 8, !tbaa !14
  %.not = icmp eq ptr %5, null
  br i1 %.not, label %7, label %6

6:                                                ; preds = %2
  tail call void @free(ptr noundef nonnull %5) #25
  store ptr null, ptr %4, align 8, !tbaa !14
  br label %7

7:                                                ; preds = %2, %6
  %8 = tail call ptr @Extra_FileNameGeneric(ptr noundef %0) #25
  store ptr %8, ptr %4, align 8, !tbaa !14
  %9 = getelementptr inbounds nuw i8, ptr %3, i64 16
  %10 = load ptr, ptr %9, align 8, !tbaa !3
  %.not.i = icmp eq ptr %10, null
  br i1 %.not.i, label %Mini_AigStop.exit, label %11

11:                                               ; preds = %7
  tail call void @free(ptr noundef nonnull %10) #25
  br label %Mini_AigStop.exit

Mini_AigStop.exit:                                ; preds = %7, %11
  tail call void @free(ptr noundef nonnull %3) #25
  tail call void @Gia_ManReadMiniAigNames(ptr noundef %0, ptr noundef nonnull %4)
  %12 = tail call i32 @Gia_ManIsNormalized(ptr noundef nonnull %4) #25
  %.not25 = icmp eq i32 %12, 0
  br i1 %.not25, label %13, label %23

13:                                               ; preds = %Mini_AigStop.exit
  %14 = tail call ptr @Gia_ManDupNormalize(ptr noundef nonnull %4, i32 noundef 0) #25
  %15 = getelementptr inbounds nuw i8, ptr %4, i64 632
  %16 = load ptr, ptr %15, align 8, !tbaa !64
  %17 = getelementptr inbounds nuw i8, ptr %14, i64 632
  %18 = load ptr, ptr %17, align 8, !tbaa !64
  store ptr %18, ptr %15, align 8, !tbaa !64
  store ptr %16, ptr %17, align 8, !tbaa !64
  %19 = getelementptr inbounds nuw i8, ptr %4, i64 640
  %20 = load ptr, ptr %19, align 8, !tbaa !65
  %21 = getelementptr inbounds nuw i8, ptr %14, i64 640
  %22 = load ptr, ptr %21, align 8, !tbaa !65
  store ptr %22, ptr %19, align 8, !tbaa !65
  store ptr %20, ptr %21, align 8, !tbaa !65
  tail call void @Gia_ManStop(ptr noundef nonnull %4) #25
  br label %23

23:                                               ; preds = %13, %Mini_AigStop.exit
  %.0 = phi ptr [ %4, %Mini_AigStop.exit ], [ %14, %13 ]
  ret ptr %.0
}